; Function Attrs: cold mustprogress optsize uwtable
define dso_local void @__cxa_guard_release(ptr noundef captures(none) %0) local_unnamed_addr #0 personality ptr @__gxx_personality_v0 {
  store atomic i8 1, ptr %0 release, align 1
  %2 = tail call noundef i32 @pthread_mutex_lock(ptr noundef nonnull @_ZN10__cxxabiv112_GLOBAL__N_112GlobalStaticINS0_11LibcppMutexEE8instanceE) #7
  %.not.i.i.i = icmp eq i32 %2, 0
  br i1 %.not.i.i.i, label %_ZN10__cxxabiv112_GLOBAL__N_119InitByteGlobalMutexINS0_11LibcppMutexENS0_13LibcppCondVarEL_ZNS0_12GlobalStaticIS2_E8instanceEEL_ZNS4_IS3_E8instanceEEXadL_ZNS0_16PlatformThreadIDEvEEE9LockGuardC2EPKc.exit.i.i, label %3

3:                                                ; preds = %1
  tail call void (ptr, ...) @__abort_message(ptr noundef nonnull @.str.2, ptr noundef nonnull @.str.4) #8
  unreachable

_ZN10__cxxabiv112_GLOBAL__N_119InitByteGlobalMutexINS0_11LibcppMutexENS0_13LibcppCondVarEL_ZNS0_12GlobalStaticIS2_E8instanceEEL_ZNS4_IS3_E8instanceEEXadL_ZNS0_16PlatformThreadIDEvEEE9LockGuardC2EPKc.exit.i.i: ; preds = %1
  %4 = getelementptr inbounds nuw i8, ptr %0, i64 1
  %5 = load i8, ptr %4, align 1, !tbaa !5
  store i8 1, ptr %4, align 1, !tbaa !5
  %6 = tail call noundef i32 @pthread_mutex_unlock(ptr noundef nonnull @_ZN10__cxxabiv112_GLOBAL__N_112GlobalStaticINS0_11LibcppMutexEE8instanceE) #7
  %.not.i1.i.i = icmp eq i32 %6, 0
  br i1 %.not.i1.i.i, label %_ZN10__cxxabiv112_GLOBAL__N_119InitByteGlobalMutexINS0_11LibcppMutexENS0_13LibcppCondVarEL_ZNS0_12GlobalStaticIS2_E8instanceEEL_ZNS4_IS3_E8instanceEEXadL_ZNS0_16PlatformThreadIDEvEEE9LockGuardD2Ev.exit.i.i, label %7

7:                                                ; preds = %_ZN10__cxxabiv112_GLOBAL__N_119InitByteGlobalMutexINS0_11LibcppMutexENS0_13LibcppCondVarEL_ZNS0_12GlobalStaticIS2_E8instanceEEL_ZNS4_IS3_E8instanceEEXadL_ZNS0_16PlatformThreadIDEvEEE9LockGuardC2EPKc.exit.i.i
  invoke void (ptr, ...) @__abort_message(ptr noundef nonnull @.str.3, ptr noundef nonnull @.str.4) #8
          to label %8 unwind label %9

8:                                                ; preds = %7
  unreachable

9:                                                ; preds = %7
  %10 = landingpad { ptr, i32 }
          catch ptr null
  %11 = extractvalue { ptr, i32 } %10, 0
  tail call void @__clang_call_terminate(ptr %11) #9
  unreachable

_ZN10__cxxabiv112_GLOBAL__N_119InitByteGlobalMutexINS0_11LibcppMutexENS0_13LibcppCondVarEL_ZNS0_12GlobalStaticIS2_E8instanceEEL_ZNS4_IS3_E8instanceEEXadL_ZNS0_16PlatformThreadIDEvEEE9LockGuardD2Ev.exit.i.i: ; preds = %_ZN10__cxxabiv112_GLOBAL__N_119InitByteGlobalMutexINS0_11LibcppMutexENS0_13LibcppCondVarEL_ZNS0_12GlobalStaticIS2_E8instanceEEL_ZNS4_IS3_E8instanceEEXadL_ZNS0_16PlatformThreadIDEvEEE9LockGuardC2EPKc.exit.i.i
  %12 = and i8 %5, 4
  %.not.i.i = icmp eq i8 %12, 0
  br i1 %.not.i.i, label %_ZN10__cxxabiv112_GLOBAL__N_111GuardObjectINS0_19InitByteGlobalMutexINS0_11LibcppMutexENS0_13LibcppCondVarEL_ZNS0_12GlobalStaticIS3_E8instanceEEL_ZNS5_IS4_E8instanceEEXadL_ZNS0_16PlatformThreadIDEvEEEEE17cxa_guard_releaseEv.exit, label %13

13:                                               ; preds = %_ZN10__cxxabiv112_GLOBAL__N_119InitByteGlobalMutexINS0_11LibcppMutexENS0_13LibcppCondVarEL_ZNS0_12GlobalStaticIS2_E8instanceEEL_ZNS4_IS3_E8instanceEEXadL_ZNS0_16PlatformThreadIDEvEEE9LockGuardD2Ev.exit.i.i
  %14 = tail call noundef i32 @pthread_cond_broadcast(ptr noundef nonnull @_ZN10__cxxabiv112_GLOBAL__N_112GlobalStaticINS0_13LibcppCondVarEE8instanceE) #7
  %.not2.i.i = icmp eq i32 %14, 0
  br i1 %.not2.i.i, label %_ZN10__cxxabiv112_GLOBAL__N_111GuardObjectINS0_19InitByteGlobalMutexINS0_11LibcppMutexENS0_13LibcppCondVarEL_ZNS0_12GlobalStaticIS3_E8instanceEEL_ZNS5_IS4_E8instanceEEXadL_ZNS0_16PlatformThreadIDEvEEEEE17cxa_guard_releaseEv.exit, label %15

15:                                               ; preds = %13
  tail call void (ptr, ...) @__abort_message(ptr noundef nonnull @.str.5, ptr noundef nonnull @.str.4) #8
  unreachable

_ZN10__cxxabiv112_GLOBAL__N_111GuardObjectINS0_19InitByteGlobalMutexINS0_11LibcppMutexENS0_13LibcppCondVarEL_ZNS0_12GlobalStaticIS3_E8instanceEEL_ZNS5_IS4_E8instanceEEXadL_ZNS0_16PlatformThreadIDEvEEEEE17cxa_guard_releaseEv.exit: ; preds = %_ZN10__cxxabiv112_GLOBAL__N_119InitByteGlobalMutexINS0_11LibcppMutexENS0_13LibcppCondVarEL_ZNS0_12GlobalStaticIS2_E8instanceEEL_ZNS4_IS3_E8instanceEEXadL_ZNS0_16PlatformThreadIDEvEEE9LockGuardD2Ev.exit.i.i, %13
  ret void
}